Certificate:
    Data:
        Version: 3 (0x2)
        Serial Number: 3 (0x3)
        Signature Algorithm: ecdsa-with-SHA256
        Issuer: C=UT, ST=UT, L=UT, O=Utku Sarioglu
        Validity
            Not Before: Jul 19 16:49:35 2022 GMT
            Not After : Jul 19 16:49:35 2023 GMT
        Subject: C=UT, ST=UT, O=Utku Sarioglu, OU=Ms, CN=ms.ms.svc.cluster.local
        Subject Public Key Info:
            Public Key Algorithm: id-ecPublicKey
                Public-Key: (256 bit)
                pub:
                    04:2d:bc:a8:ef:27:aa:e8:9b:b0:86:04:85:bb:cc:
                    59:05:fe:1f:83:7f:f7:9d:03:1c:15:37:69:2b:b0:
                    5a:e9:2b:b2:c0:fa:b0:55:85:0d:61:69:53:18:b6:
                    d9:7d:57:3e:cd:5a:31:4a:40:43:67:9d:2b:2c:2b:
                    0a:51:08:c5:dc
                ASN1 OID: prime256v1
                NIST CURVE: P-256
        X509v3 extensions:
            X509v3 Subject Alternative Name: 
                DNS:ms.ms.svc.cluster.local, DNS:ms.ms.svc, DNS:ms.ms
    Signature Algorithm: ecdsa-with-SHA256
         30:45:02:21:00:e9:c5:c2:35:c1:e1:d6:f1:0b:bf:bd:67:34:
         8e:5f:bc:71:40:bc:3e:8e:cd:88:32:e4:59:de:42:d3:c2:b8:
         1b:02:20:21:79:4c:67:3d:9e:0e:16:14:65:10:13:8a:0a:0f:
         01:38:19:0f:7e:4e:72:26:d7:a6:52:93:5c:4f:02:6d:6a
-----BEGIN CERTIFICATE-----
MIIBxzCCAW2gAwIBAgIBAzAKBggqhkjOPQQDAjA/MQswCQYDVQQGEwJVVDELMAkG
A1UECAwCVVQxCzAJBgNVBAcMAlVUMRYwFAYDVQQKDA1VdGt1IFNhcmlvZ2x1MB4X
DTIyMDcxOTE2NDkzNVoXDTIzMDcxOTE2NDkzNVowYTELMAkGA1UEBhMCVVQxCzAJ
BgNVBAgMAlVUMRYwFAYDVQQKDA1VdGt1IFNhcmlvZ2x1MQswCQYDVQQLDAJNczEg
MB4GA1UEAwwXbXMubXMuc3ZjLmNsdXN0ZXIubG9jYWwwWTATBgcqhkjOPQIBBggq
hkjOPQMBBwNCAAQtvKjvJ6rom7CGBIW7zFkF/h+Df/edAxwVN2krsFrpK7LA+rBV
hQ1haVMYttl9Vz7NWjFKQENnnSssKwpRCMXcozgwNjA0BgNVHREELTArghdtcy5t
cy5zdmMuY2x1c3Rlci5sb2NhbIIJbXMubXMuc3ZjggVtcy5tczAKBggqhkjOPQQD
AgNIADBFAiEA6cXCNcHh1vELv71nNI5fvHFAvD6OzYgy5FneQtPCuBsCICF5TGc9
ng4WFGUQE4oKDwE4GQ9+TnIm16ZSk1xPAm1q
-----END CERTIFICATE-----
