Certificate:
    Data:
        Version: 3 (0x2)
        Serial Number: 4 (0x4)
        Signature Algorithm: ecdsa-with-SHA256
        Issuer: C=UT, ST=UT, L=UT, O=Utku Sarioglu
        Validity
            Not Before: Jul 19 16:52:01 2022 GMT
            Not After : Jul 19 16:52:01 2023 GMT
        Subject: C=UT, ST=UT, O=Utku Sarioglu, OU=Api, CN=api.api.svc.cluster.local
        Subject Public Key Info:
            Public Key Algorithm: id-ecPublicKey
                Public-Key: (256 bit)
                pub:
                    04:c8:ba:97:c6:28:fc:e4:fa:af:08:80:26:9a:24:
                    f3:bd:e3:ba:c3:9a:1f:ed:f9:3c:04:a2:48:f4:94:
                    07:da:13:44:ab:21:c8:73:48:77:8c:c8:49:6e:1f:
                    63:12:27:3e:e1:5a:f0:f5:4d:ba:c2:f5:6c:5c:af:
                    1b:e8:80:b9:22
                ASN1 OID: prime256v1
                NIST CURVE: P-256
        X509v3 extensions:
            X509v3 Subject Alternative Name: 
                DNS:api.api.svc.cluster.local, DNS:api.api.svc, DNS:api.api
    Signature Algorithm: ecdsa-with-SHA256
         30:44:02:20:4e:8e:e4:d2:53:73:c8:df:db:66:b0:8a:99:e2:
         43:44:86:26:0e:80:14:a5:7b:8b:da:11:20:0a:4c:98:65:d6:
         02:20:76:65:65:ed:13:36:75:fa:df:63:26:6f:dd:e3:02:be:
         5b:1a:cf:c1:11:57:0f:5f:79:8a:e4:2b:68:1a:d2:95
-----BEGIN CERTIFICATE-----
MIIBzzCCAXagAwIBAgIBBDAKBggqhkjOPQQDAjA/MQswCQYDVQQGEwJVVDELMAkG
A1UECAwCVVQxCzAJBgNVBAcMAlVUMRYwFAYDVQQKDA1VdGt1IFNhcmlvZ2x1MB4X
DTIyMDcxOTE2NTIwMVoXDTIzMDcxOTE2NTIwMVowZDELMAkGA1UEBhMCVVQxCzAJ
BgNVBAgMAlVUMRYwFAYDVQQKDA1VdGt1IFNhcmlvZ2x1MQwwCgYDVQQLDANBcGkx
IjAgBgNVBAMMGWFwaS5hcGkuc3ZjLmNsdXN0ZXIubG9jYWwwWTATBgcqhkjOPQIB
BggqhkjOPQMBBwNCAATIupfGKPzk+q8IgCaaJPO947rDmh/t+TwEokj0lAfaE0Sr
IchzSHeMyEluH2MSJz7hWvD1TbrC9WxcrxvogLkioz4wPDA6BgNVHREEMzAxghlh
cGkuYXBpLnN2Yy5jbHVzdGVyLmxvY2FsggthcGkuYXBpLnN2Y4IHYXBpLmFwaTAK
BggqhkjOPQQDAgNHADBEAiBOjuTSU3PI39tmsIqZ4kNEhiYOgBSle4vaESAKTJhl
1gIgdmVl7RM2dfrfYyZv3eMCvlsaz8ERVw9feYrkK2ga0pU=
-----END CERTIFICATE-----
