Certificate:
    Data:
        Version: 3 (0x2)
        Serial Number: 1 (0x1)
        Signature Algorithm: ecdsa-with-SHA256
        Issuer: C=UT, ST=UT, O=Utku Sarioglu, OU=NextJS Grpc, CN=www.nextjs-grpc.com/emailAddress=info@nextjs-grpc.com
        Validity
            Not Before: Jul 22 15:31:34 2022 GMT
            Not After : Jul 22 15:31:34 2023 GMT
        Subject: C=UT, ST=UT, O=Utku Sarioglu, OU=Minion, CN=www.minion.com/emailAddress=minion@minion.com
        Subject Public Key Info:
            Public Key Algorithm: id-ecPublicKey
                Public-Key: (256 bit)
                pub:
                    04:83:4d:dc:94:c1:91:96:fa:68:a5:9c:85:4c:78:
                    d7:c0:a9:7f:ac:af:c1:72:6a:92:24:55:fb:b6:ec:
                    b0:e1:43:5e:3b:86:fd:fd:18:ff:87:42:d5:63:87:
                    7f:eb:bd:49:39:9f:89:31:b3:7d:1f:39:5b:be:78:
                    c0:09:c3:4d:21
                ASN1 OID: prime256v1
                NIST CURVE: P-256
        X509v3 extensions:
            X509v3 Subject Alternative Name: 
                DNS:*.minion.com, DNS:minion.com
    Signature Algorithm: ecdsa-with-SHA256
         30:44:02:20:7d:92:6d:3a:72:64:df:bc:6b:a4:bc:bf:07:2b:
         b2:62:c6:51:32:9d:f5:f0:48:ab:04:28:0b:e5:af:6f:3c:af:
         02:20:2d:da:8a:21:25:ae:e1:bb:37:f4:2d:b8:d5:5f:3a:2c:
         a6:65:a2:35:1f:03:85:2a:6c:1f:09:93:1d:a0:32:eb
-----BEGIN CERTIFICATE-----
MIICHzCCAcagAwIBAgIBATAKBggqhkjOPQQDAjCBizELMAkGA1UEBhMCVVQxCzAJ
BgNVBAgMAlVUMRYwFAYDVQQKDA1VdGt1IFNhcmlvZ2x1MRQwEgYDVQQLDAtOZXh0
SlMgR3JwYzEcMBoGA1UEAwwTd3d3Lm5leHRqcy1ncnBjLmNvbTEjMCEGCSqGSIb3
DQEJARYUaW5mb0BuZXh0anMtZ3JwYy5jb20wHhcNMjIwNzIyMTUzMTM0WhcNMjMw
NzIyMTUzMTM0WjB+MQswCQYDVQQGEwJVVDELMAkGA1UECAwCVVQxFjAUBgNVBAoM
DVV0a3UgU2FyaW9nbHUxDzANBgNVBAsMBk1pbmlvbjEXMBUGA1UEAwwOd3d3Lm1p
bmlvbi5jb20xIDAeBgkqhkiG9w0BCQEWEW1pbmlvbkBtaW5pb24uY29tMFkwEwYH
KoZIzj0CAQYIKoZIzj0DAQcDQgAEg03clMGRlvpopZyFTHjXwKl/rK/BcmqSJFX7
tuyw4UNeO4b9/Rj/h0LVY4d/671JOZ+JMbN9HzlbvnjACcNNIaMnMCUwIwYDVR0R
BBwwGoIMKi5taW5pb24uY29tggptaW5pb24uY29tMAoGCCqGSM49BAMCA0cAMEQC
IH2SbTpyZN+8a6S8vwcrsmLGUTKd9fBIqwQoC+WvbzyvAiAt2oohJa7huzf0LbjV
XzospmWiNR8DhSpsHwmTHaAy6w==
-----END CERTIFICATE-----
