Certificate:
    Data:
        Version: 3 (0x2)
        Serial Number: 5 (0x5)
        Signature Algorithm: ecdsa-with-SHA256
        Issuer: C=UT, ST=UT, L=UT, O=Utku Sarioglu
        Validity
            Not Before: Jul 22 15:02:31 2022 GMT
            Not After : Jul 22 15:02:31 2023 GMT
        Subject: C=UT, ST=UT, O=Utku Sarioglu, OU=NextJS Grpc, CN=www.nextjs-grpc.com/emailAddress=info@nextjs-grpc.com
        Subject Public Key Info:
            Public Key Algorithm: id-ecPublicKey
                Public-Key: (256 bit)
                pub:
                    04:fc:be:30:c6:dd:8c:6c:f3:4d:13:d5:02:f4:ea:
                    ad:a2:76:41:e4:24:39:ed:07:b6:6d:4b:39:0e:15:
                    f3:3c:18:9e:3f:da:5b:0b:19:b1:d9:36:29:9b:cb:
                    4a:49:5f:80:11:74:5c:9d:e3:1e:bc:37:be:a2:c6:
                    c3:96:5d:43:88
                ASN1 OID: prime256v1
                NIST CURVE: P-256
        X509v3 extensions:
            X509v3 Subject Key Identifier: 
                FD:1F:11:3A:BA:56:28:31:C7:87:81:E8:93:17:76:8B:5D:22:7A:10
            X509v3 Authority Key Identifier: 
                keyid:13:EB:8C:22:28:EB:B1:48:BC:F9:8F:9C:43:9C:E8:ED:07:BD:7B:B4

            X509v3 Basic Constraints: critical
                CA:TRUE
    Signature Algorithm: ecdsa-with-SHA256
         30:45:02:20:78:62:94:14:a3:d0:53:a0:54:09:ee:3a:50:53:
         35:50:c9:17:78:7f:1f:1e:36:46:dd:6c:0e:d8:19:93:90:48:
         02:21:00:e7:13:58:69:b2:9a:e4:aa:46:88:6d:ae:a6:8b:b1:
         bd:be:c7:cf:0f:ab:ad:5e:6e:c5:39:5d:73:ee:3e:f6:a8
-----BEGIN CERTIFICATE-----
MIICDTCCAbOgAwIBAgIBBTAKBggqhkjOPQQDAjA/MQswCQYDVQQGEwJVVDELMAkG
A1UECAwCVVQxCzAJBgNVBAcMAlVUMRYwFAYDVQQKDA1VdGt1IFNhcmlvZ2x1MB4X
DTIyMDcyMjE1MDIzMVoXDTIzMDcyMjE1MDIzMVowgYsxCzAJBgNVBAYTAlVUMQsw
CQYDVQQIDAJVVDEWMBQGA1UECgwNVXRrdSBTYXJpb2dsdTEUMBIGA1UECwwLTmV4
dEpTIEdycGMxHDAaBgNVBAMME3d3dy5uZXh0anMtZ3JwYy5jb20xIzAhBgkqhkiG
9w0BCQEWFGluZm9AbmV4dGpzLWdycGMuY29tMFkwEwYHKoZIzj0CAQYIKoZIzj0D
AQcDQgAE/L4wxt2MbPNNE9UC9OqtonZB5CQ57Qe2bUs5DhXzPBieP9pbCxmx2TYp
m8tKSV+AEXRcneMevDe+osbDll1DiKNTMFEwHQYDVR0OBBYEFP0fETq6Vigxx4eB
6JMXdotdInoQMB8GA1UdIwQYMBaAFBPrjCIo67FIvPmPnEOc6O0HvXu0MA8GA1Ud
EwEB/wQFMAMBAf8wCgYIKoZIzj0EAwIDSAAwRQIgeGKUFKPQU6BUCe46UFM1UMkX
eH8fHjZG3WwO2BmTkEgCIQDnE1hpsprkqkaIba6mi7G9vsfPD6utXm7FOV1z7j72
qA==
-----END CERTIFICATE-----
