Certificate:
    Data:
        Version: 3 (0x2)
        Serial Number: 1 (0x1)
        Signature Algorithm: ecdsa-with-SHA256
        Issuer: C=UT, ST=UT, L=UT, O=Utku Sarioglu
        Validity
            Not Before: Jul 19 12:34:06 2022 GMT
            Not After : Jul 19 12:34:06 2023 GMT
        Subject: C=UT, ST=UT, O=Utku Sarioglu, OU=Website, CN=www.utkusarioglu.com/emailAddress=utkusarioglu@hotmail.com
        Subject Public Key Info:
            Public Key Algorithm: id-ecPublicKey
                Public-Key: (256 bit)
                pub:
                    04:6b:a7:9f:a6:e2:d1:a9:57:f3:84:1d:8f:43:d8:
                    c3:2c:2e:e8:65:c8:40:78:eb:c2:c6:77:19:1d:93:
                    43:69:39:5a:06:ab:b1:42:a7:c2:6b:26:a5:0e:01:
                    30:6b:72:6e:97:4e:c4:82:d5:45:e3:33:0a:9f:f4:
                    9e:90:fa:ed:b8
                ASN1 OID: prime256v1
                NIST CURVE: P-256
        X509v3 extensions:
            X509v3 Subject Alternative Name: 
                DNS:*.utkusarioglu.com, DNS:utkusarioglu.com
    Signature Algorithm: ecdsa-with-SHA256
         30:45:02:20:25:68:fa:e8:5f:da:df:5b:85:a7:e5:23:45:a0:
         d1:ba:b0:48:f0:1e:3f:d8:f2:7d:3c:b9:20:61:88:57:a9:55:
         02:21:00:88:0f:d4:45:fc:e1:c1:ad:36:2c:80:47:de:e0:8e:
         c7:8f:4e:ae:8e:9d:1a:3c:af:ec:f2:32:6e:da:66:d3:7b
-----BEGIN CERTIFICATE-----
MIIB7jCCAZSgAwIBAgIBATAKBggqhkjOPQQDAjA/MQswCQYDVQQGEwJVVDELMAkG
A1UECAwCVVQxCzAJBgNVBAcMAlVUMRYwFAYDVQQKDA1VdGt1IFNhcmlvZ2x1MB4X
DTIyMDcxOTEyMzQwNloXDTIzMDcxOTEyMzQwNlowgYwxCzAJBgNVBAYTAlVUMQsw
CQYDVQQIDAJVVDEWMBQGA1UECgwNVXRrdSBTYXJpb2dsdTEQMA4GA1UECwwHV2Vi
c2l0ZTEdMBsGA1UEAwwUd3d3LnV0a3VzYXJpb2dsdS5jb20xJzAlBgkqhkiG9w0B
CQEWGHV0a3VzYXJpb2dsdUBob3RtYWlsLmNvbTBZMBMGByqGSM49AgEGCCqGSM49
AwEHA0IABGunn6bi0alX84Qdj0PYwywu6GXIQHjrwsZ3GR2TQ2k5WgarsUKnwmsm
pQ4BMGtybpdOxILVReMzCp/0npD67bijMzAxMC8GA1UdEQQoMCaCEioudXRrdXNh
cmlvZ2x1LmNvbYIQdXRrdXNhcmlvZ2x1LmNvbTAKBggqhkjOPQQDAgNIADBFAiAl
aProX9rfW4Wn5SNFoNG6sEjwHj/Y8n08uSBhiFepVQIhAIgP1EX84cGtNiyAR97g
jsePTq6OnRo8r+zyMm7aZtN7
-----END CERTIFICATE-----
