Certificate:
    Data:
        Version: 3 (0x2)
        Serial Number: 2 (0x2)
        Signature Algorithm: ecdsa-with-SHA256
        Issuer: C=UT, ST=UT, L=UT, O=Utku Sarioglu
        Validity
            Not Before: Jul 19 15:50:34 2022 GMT
            Not After : Jul 19 15:50:34 2023 GMT
        Subject: C=UT, ST=UT, O=Utku Sarioglu, OU=Website, CN=www.client.com/emailAddress=client@client.com
        Subject Public Key Info:
            Public Key Algorithm: id-ecPublicKey
                Public-Key: (256 bit)
                pub:
                    04:23:b5:eb:bd:76:85:8d:e7:de:f6:e9:f9:cb:a7:
                    9a:31:5f:5a:9f:8d:2d:7e:41:eb:2c:e0:cc:8a:c3:
                    d9:0c:f5:33:3a:98:8a:d7:c8:f1:ef:85:ba:ca:1a:
                    f1:c9:fc:a2:74:c5:b9:32:1a:9f:20:8e:ae:8a:c0:
                    9f:fd:82:bd:77
                ASN1 OID: prime256v1
                NIST CURVE: P-256
        X509v3 extensions:
            X509v3 Subject Alternative Name: 
                DNS:*.client.com, DNS:client.com
    Signature Algorithm: ecdsa-with-SHA256
         30:46:02:21:00:97:d0:92:44:7d:83:45:b4:0c:2b:14:0b:b9:
         44:1b:0a:24:d7:ef:1b:a4:c0:81:6b:f5:50:ad:79:e7:ad:97:
         c7:02:21:00:ad:36:7c:f6:fd:dd:8e:d3:15:2f:49:c3:0b:f1:
         b4:7d:b2:0c:c4:21:21:fd:82:0d:38:cf:2a:a1:81:e3:ce:b1
-----BEGIN CERTIFICATE-----
MIIB1TCCAXqgAwIBAgIBAjAKBggqhkjOPQQDAjA/MQswCQYDVQQGEwJVVDELMAkG
A1UECAwCVVQxCzAJBgNVBAcMAlVUMRYwFAYDVQQKDA1VdGt1IFNhcmlvZ2x1MB4X
DTIyMDcxOTE1NTAzNFoXDTIzMDcxOTE1NTAzNFowfzELMAkGA1UEBhMCVVQxCzAJ
BgNVBAgMAlVUMRYwFAYDVQQKDA1VdGt1IFNhcmlvZ2x1MRAwDgYDVQQLDAdXZWJz
aXRlMRcwFQYDVQQDDA53d3cuY2xpZW50LmNvbTEgMB4GCSqGSIb3DQEJARYRY2xp
ZW50QGNsaWVudC5jb20wWTATBgcqhkjOPQIBBggqhkjOPQMBBwNCAAQjteu9doWN
59726fnLp5oxX1qfjS1+Qess4MyKw9kM9TM6mIrXyPHvhbrKGvHJ/KJ0xbkyGp8g
jq6KwJ/9gr13oycwJTAjBgNVHREEHDAaggwqLmNsaWVudC5jb22CCmNsaWVudC5j
b20wCgYIKoZIzj0EAwIDSQAwRgIhAJfQkkR9g0W0DCsUC7lEGwok1+8bpMCBa/VQ
rXnnrZfHAiEArTZ89v3djtMVL0nDC/G0fbIMxCEh/YINOM8qoYHjzrE=
-----END CERTIFICATE-----
